target datalayout = "e-m:e-p270:32:32-p271:32:32-p272:64:64-i64:64-i128:128-f80:128-n8:16:32:64-S128"
target triple = "x86_64-unknown-linux-gnu"

%"class.sat::literal" = type { i32 }
%class.symbol = type { ptr }
%"class.smt::theory_seq::solution_map" = type { ptr, ptr, %class.svector, %"class.smt::theory_seq::eval_cache", %class.ref_vector, %class.ref_vector, %class.ptr_vector.1, %class.svector.3, %class.svector.5 }
%class.svector = type { %class.vector }
%class.vector = type { ptr }
%"class.smt::theory_seq::eval_cache" = type { %class.svector, %class.ref_vector }
%class.ref_vector = type { %class.ref_vector_core }
%class.ref_vector_core = type { %class.ref_manager_wrapper, %class.ptr_vector }
%class.ref_manager_wrapper = type { ptr }
%class.ptr_vector = type { %class.vector.0 }
%class.vector.0 = type { ptr }
%class.ptr_vector.1 = type { %class.vector.2 }
%class.vector.2 = type { ptr }
%class.svector.3 = type { %class.vector.4 }
%class.vector.4 = type { ptr }
%class.svector.5 = type { %class.vector.6 }
%class.vector.6 = type { ptr }
%class.scoped_dependency_manager = type { %"class.scoped_dependency_manager<smt::theory_seq::assumption>::config::value_manager", %"class.scoped_dependency_manager<smt::theory_seq::assumption>::config::allocator", %class.dependency_manager }
%"class.scoped_dependency_manager<smt::theory_seq::assumption>::config::value_manager" = type { i8 }
%"class.scoped_dependency_manager<smt::theory_seq::assumption>::config::allocator" = type { %class.region }
%class.region = type { ptr, ptr, ptr, ptr, ptr }
%class.dependency_manager = type { ptr, ptr, %class.ptr_vector.1 }
%"class.smt::theory_seq::exclusion_table" = type { ptr, %class.obj_pair_hashtable, %class.ref_vector, %class.ref_vector, %class.svector.5 }
%class.obj_pair_hashtable = type { %class.core_hashtable.base.37, [4 x i8] }
%class.core_hashtable.base.37 = type <{ ptr, i32, i32, i32 }>
%class.params_ref = type { ptr }
%"class.smt::theory_seq" = type { %"class.smt::theory.base", %"class.seq::eq_solver_context", %class.scoped_dependency_manager, %"class.smt::theory_seq::solution_map", %class.scoped_vector, %class.scoped_vector.41, %class.scoped_vector.43, %class.scoped_vector.45, %class.scoped_vector.45, i8, i32, %class.union_find, %"class.smt::seq_offset_eq", %class.obj_ref_map, %class.obj_ref_map, ptr, %"class.smt::theory_seq::exclusion_table", %class.ref_vector, %class.obj_hashtable.60, i32, i8, %class.ref_vector, %class.ref_vector, %class.obj_hashtable.60, %class.obj_hashtable.60, %class.ref_vector, %class.obj_map.66, %class.ref_vector, %class.scoped_ptr_vector, ptr, %class.th_rewriter, %class.th_rewriter, %class.seq_rewriter, %class.seq_util, %class.arith_util, %"class.seq::skolem", %"class.smt::seq_axioms", %"class.seq::eq_solver", %"class.smt::seq_regex", %"class.smt::arith_value", %class.trail_stack, %"struct.smt::theory_seq::stats", %class.ptr_vector, %class.ptr_vector, %class.ref_vector, %class.ref_vector, %class.ref_vector, %class.ref_vector, %class.ref_pair_vector, i32, %"class.sat::literal", ptr, i8, i8, i8, [5 x i8], %class.obj_hashtable.60, %class.obj_hashtable.60, ptr, %class.obj_pair_hashtable, %class.scoped_ptr_vector.104, %class.u_map, %class.ptr_vector }
%"class.smt::theory.base" = type <{ ptr, i32, [4 x i8], ptr, ptr, %class.ptr_vector.38, %class.svector.5, i32, i8 }>
%class.ptr_vector.38 = type { %class.vector.39 }
%class.vector.39 = type { ptr }
%"class.seq::eq_solver_context" = type { ptr }
%class.scoped_vector = type { i32, i32, %class.svector.5, %class.vector.40, %class.svector.5, %class.svector.5, %class.svector.5, %class.svector.5, %class.svector.5 }
%class.vector.40 = type { ptr }
%class.scoped_vector.41 = type { i32, i32, %class.svector.5, %class.vector.42, %class.svector.5, %class.svector.5, %class.svector.5, %class.svector.5, %class.svector.5 }
%class.vector.42 = type { ptr }
%class.scoped_vector.43 = type { i32, i32, %class.svector.5, %class.vector.44, %class.svector.5, %class.svector.5, %class.svector.5, %class.svector.5, %class.svector.5 }
%class.vector.44 = type { ptr }
%class.scoped_vector.45 = type { i32, i32, %class.svector.5, %class.vector.46, %class.svector.5, %class.svector.5, %class.svector.5, %class.svector.5, %class.svector.5 }
%class.vector.46 = type { ptr }
%class.union_find = type { ptr, ptr, %class.svector.5, %class.svector.5, %class.svector.5, %"class.union_find<smt::theory_seq>::mk_var_trail" }
%"class.union_find<smt::theory_seq>::mk_var_trail" = type { %class.trail, ptr }
%class.trail = type { ptr }
%"class.smt::seq_offset_eq" = type <{ ptr, ptr, %class.seq_util, %class.arith_util, %class.obj_hashtable, %class.obj_pair_map, i32, [4 x i8] }>
%class.obj_hashtable = type { %class.core_hashtable.base.50, [4 x i8] }
%class.core_hashtable.base.50 = type <{ ptr, i32, i32, i32 }>
%class.obj_pair_map = type { %class.core_hashtable.51 }
%class.core_hashtable.51 = type <{ ptr, i32, i32, i32, [4 x i8] }>
%class.obj_ref_map = type { ptr, %class.obj_map.55 }
%class.obj_map.55 = type { %class.core_hashtable.56 }
%class.core_hashtable.56 = type <{ ptr, i32, i32, i32, [4 x i8] }>
%class.obj_map.66 = type { %class.core_hashtable.67 }
%class.core_hashtable.67 = type <{ ptr, i32, i32, i32, [4 x i8] }>
%class.scoped_ptr_vector = type { %class.ptr_vector.71 }
%class.ptr_vector.71 = type { %class.vector.72 }
%class.vector.72 = type { ptr }
%class.th_rewriter = type { ptr, %class.params_ref }
%class.seq_rewriter = type <{ %class.seq_util, %class.arith_util, %class.bool_rewriter, %class.re2automaton, %"class.seq_rewriter::op_cache", %class.ref_vector, %class.ref_vector, %class.ref_vector, i8, [7 x i8] }>
%class.bool_rewriter = type { ptr, i8, i8, i8, i8, i8, i8, i32, i8, i32, i32, i8, %class.ptr_vector, %class.ptr_vector, %class.svector.5, %class.svector.5 }
%class.re2automaton = type { ptr, %class.sym_expr_manager, %class.seq_util, %class.scoped_ptr, %class.scoped_ptr.73, %class.scoped_ptr.74 }
%class.sym_expr_manager = type { i8 }
%class.scoped_ptr = type { ptr }
%class.scoped_ptr.73 = type { ptr }
%class.scoped_ptr.74 = type { ptr }
%"class.seq_rewriter::op_cache" = type { i32, %class.ref_vector, %class.hashtable }
%class.hashtable = type { %class.core_hashtable.base.76, [4 x i8] }
%class.core_hashtable.base.76 = type <{ ptr, i32, i32, i32 }>
%class.seq_util = type { ptr, ptr, ptr, i32, [4 x i8], %"class.seq_util::str", %"class.seq_util::rex" }
%"class.seq_util::str" = type <{ ptr, ptr, i32, [4 x i8] }>
%"class.seq_util::rex" = type { ptr, ptr, i32, %class.vector.47, %class.ref_vector, %"struct.seq_util::rex::info", %"struct.seq_util::rex::info" }
%class.vector.47 = type { ptr }
%"struct.seq_util::rex::info" = type { i32, i8, i32, i32 }
%class.arith_util = type { ptr, ptr }
%"class.seq::skolem" = type { ptr, ptr, %class.seq_util, %class.arith_util, %class.symbol, %class.symbol, %class.symbol, %class.symbol, %class.symbol, %class.symbol, %class.symbol, %class.symbol, %class.symbol, %class.symbol, %class.symbol, %class.symbol, %class.symbol, %class.symbol, %class.symbol, %class.symbol, %class.symbol, %class.symbol, %class.symbol, %class.symbol, %class.symbol }
%"class.smt::seq_axioms" = type { ptr, ptr, ptr, %class.arith_util, %class.seq_util, %"class.seq::skolem", %"class.seq::axioms", i8, %"class.std::function.87", %"class.std::function.89" }
%"class.seq::axioms" = type { ptr, ptr, %class.arith_util, %class.seq_util, %"class.seq::skolem", %class.ref_vector, %class.ref_vector, %class.obj_map.77, %"class.std::function", %"class.std::function.82", %"class.std::function.85" }
%class.obj_map.77 = type { %class.core_hashtable.78 }
%class.core_hashtable.78 = type <{ ptr, i32, i32, i32, [4 x i8] }>
%"class.std::function" = type { %"class.std::_Function_base", ptr }
%"class.std::_Function_base" = type { %"union.std::_Any_data", ptr }
%"union.std::_Any_data" = type { %"union.std::_Nocopy_types" }
%"union.std::_Nocopy_types" = type { { i64, i64 } }
%"class.std::function.82" = type { %"class.std::_Function_base", ptr }
%"class.std::function.85" = type { %"class.std::_Function_base", ptr }
%"class.std::function.87" = type { %"class.std::_Function_base", ptr }
%"class.std::function.89" = type { %"class.std::_Function_base", ptr }
%"class.seq::eq_solver" = type { ptr, ptr, ptr, %class.arith_util, %class.seq_util, %class.ref_vector, %class.ptr_vector }
%"class.smt::seq_regex" = type <{ ptr, ptr, ptr, %class.vector.91, %class.ptr_addr_map, %class.ref_vector, %class.state_graph, i32, [4 x i8] }>
%class.vector.91 = type { ptr }
%class.ptr_addr_map = type { %class.table2map.92 }
%class.table2map.92 = type { %class.core_hashtable.93 }
%class.core_hashtable.93 = type <{ ptr, i32, i32, i32, [4 x i8] }>
%class.state_graph = type { %class.uint_set, %class.uint_set, %class.uint_set, %class.uint_set, %class.uint_set, %class.basic_union_find, %class.u_map.95, %class.u_map.95, %class.u_map.95, %"struct.state_graph::state_pp" }
%class.uint_set = type { %class.svector.5 }
%class.basic_union_find = type { %class.svector.5, %class.svector.5, %class.svector.5 }
%class.u_map.95 = type { %class.map.96 }
%class.map.96 = type { %class.table2map.97 }
%class.table2map.97 = type { %class.core_hashtable.98 }
%class.core_hashtable.98 = type <{ ptr, i32, i32, i32, [4 x i8] }>
%"struct.state_graph::state_pp" = type { ptr, ptr }
%"class.smt::arith_value" = type { ptr, ptr, %class.arith_util, %class.bv_util, ptr, ptr, ptr, ptr }
%class.bv_util = type { %class.bv_recognizers, ptr, ptr }
%class.bv_recognizers = type { i32 }
%class.trail_stack = type { %class.ptr_vector.100, %class.svector.5, %class.region }
%class.ptr_vector.100 = type { %class.vector.101 }
%class.vector.101 = type { ptr }
%"struct.smt::theory_seq::stats" = type { i32, i32, i32, i32, i32, i32, i32, i32, i32, i32, i32, i32, i32 }
%class.ref_pair_vector = type { %class.ref_pair_vector_core }
%class.ref_pair_vector_core = type { %class.ref_manager_wrapper, %class.svector.102 }
%class.svector.102 = type { %class.vector.103 }
%class.vector.103 = type { ptr }
%class.obj_hashtable.60 = type { %class.core_hashtable.base.64, [4 x i8] }
%class.core_hashtable.base.64 = type <{ ptr, i32, i32, i32 }>
%class.scoped_ptr_vector.104 = type { %class.ptr_vector.105 }
%class.ptr_vector.105 = type { %class.vector.106 }
%class.vector.106 = type { ptr }
%class.u_map = type { %class.map }
%class.map = type { %class.table2map }
%class.table2map = type { %class.core_hashtable.28 }
%class.core_hashtable.28 = type <{ ptr, i32, i32, i32, [4 x i8] }>
%"struct.seq::eq" = type { %class.ref_vector, %class.ref_vector }
%"class.smt::theory_seq::depeq" = type { %"struct.seq::eq", i32, ptr }
%"class.scoped_vector<smt::theory_seq::depeq>::iterator" = type <{ ptr, i32, [4 x i8] }>

; Function Attrs: mustprogress nounwind uwtable
define linkonce_odr hidden noundef nonnull align 8 dereferenceable(48) ptr @_ZNK6vectorIN3smt10theory_seq5depeqELb1EjEixEj(ptr noundef nonnull align 8 dereferenceable(8) %this, i32 noundef %idx) #4 comdat align 2 {
entry:
  %this.addr = alloca ptr, align 8
  %idx.addr = alloca i32, align 4
  store ptr %this, ptr %this.addr, align 8
  store i32 %idx, ptr %idx.addr, align 4
  %this1 = load ptr, ptr %this.addr, align 8
  %m_data = getelementptr inbounds %class.vector.40, ptr %this1, i32 0, i32 0
  %0 = load ptr, ptr %m_data, align 8
  %1 = load i32, ptr %idx.addr, align 4
  %idxprom = zext i32 %1 to i64
  %arrayidx = getelementptr inbounds %"class.smt::theory_seq::depeq", ptr %0, i64 %idxprom
  ret ptr %arrayidx
}

; Function Attrs: mustprogress nounwind uwtable
define linkonce_odr hidden noundef nonnull align 4 dereferenceable(4) ptr @_ZNK6vectorIjLb0EjEixEj(ptr noundef nonnull align 8 dereferenceable(8) %this, i32 noundef %idx) #4 comdat align 2 {
entry:
  %this.addr = alloca ptr, align 8
  %idx.addr = alloca i32, align 4
  store ptr %this, ptr %this.addr, align 8
  store i32 %idx, ptr %idx.addr, align 4
  %this1 = load ptr, ptr %this.addr, align 8
  %m_data = getelementptr inbounds %class.vector.6, ptr %this1, i32 0, i32 0
  %0 = load ptr, ptr %m_data, align 8
  %1 = load i32, ptr %idx.addr, align 4
  %idxprom = zext i32 %1 to i64
  %arrayidx = getelementptr inbounds i32, ptr %0, i64 %idxprom
  ret ptr %arrayidx
}

; Function Attrs: mustprogress uwtable
define linkonce_odr hidden noundef nonnull align 8 dereferenceable(48) ptr @_ZNK13scoped_vectorIN3smt10theory_seq5depeqEEixEj(ptr noundef nonnull align 8 dereferenceable(64) %this, i32 noundef %idx) #5 comdat align 2 {
entry:
  %this.addr = alloca ptr, align 8
  %idx.addr = alloca i32, align 4
  store ptr %this, ptr %this.addr, align 8
  store i32 %idx, ptr %idx.addr, align 4
  %this1 = load ptr, ptr %this.addr, align 8
  %m_elems = getelementptr inbounds %class.scoped_vector, ptr %this1, i32 0, i32 3
  %m_index = getelementptr inbounds %class.scoped_vector, ptr %this1, i32 0, i32 5
  %0 = load i32, ptr %idx.addr, align 4
  %call = call noundef nonnull align 4 dereferenceable(4) ptr @_ZNK6vectorIjLb0EjEixEj(ptr noundef nonnull align 8 dereferenceable(8) %m_index, i32 noundef %0)
  %1 = load i32, ptr %call, align 4
  %call2 = call noundef nonnull align 8 dereferenceable(48) ptr @_ZNK6vectorIN3smt10theory_seq5depeqELb1EjEixEj(ptr noundef nonnull align 8 dereferenceable(8) %m_elems, i32 noundef %1)
  ret ptr %call2
}

; Function Attrs: mustprogress nounwind uwtable
define linkonce_odr hidden void @_ZN13scoped_vectorIN3smt10theory_seq5depeqEE8iteratorC2ERKS3_j(ptr noundef nonnull align 8 dereferenceable(12) %this, ptr noundef nonnull align 8 dereferenceable(64) %v, i32 noundef %idx) unnamed_addr #4 comdat align 2 {
entry:
  %this.addr = alloca ptr, align 8
  %v.addr = alloca ptr, align 8
  %idx.addr = alloca i32, align 4
  store ptr %this, ptr %this.addr, align 8
  store ptr %v, ptr %v.addr, align 8
  store i32 %idx, ptr %idx.addr, align 4
  %this1 = load ptr, ptr %this.addr, align 8
  %m_vec = getelementptr inbounds %"class.scoped_vector<smt::theory_seq::depeq>::iterator", ptr %this1, i32 0, i32 0
  %0 = load ptr, ptr %v.addr, align 8
  store ptr %0, ptr %m_vec, align 8
  %m_index = getelementptr inbounds %"class.scoped_vector<smt::theory_seq::depeq>::iterator", ptr %this1, i32 0, i32 1
  %1 = load i32, ptr %idx.addr, align 4
  store i32 %1, ptr %m_index, align 8
  ret void
}

; Function Attrs: mustprogress nounwind uwtable
define linkonce_odr hidden noundef nonnull align 8 dereferenceable(12) ptr @_ZN13scoped_vectorIN3smt10theory_seq5depeqEE8iteratorppEv(ptr noundef nonnull align 8 dereferenceable(12) %this) #4 comdat align 2 {
entry:
  %this.addr = alloca ptr, align 8
  store ptr %this, ptr %this.addr, align 8
  %this1 = load ptr, ptr %this.addr, align 8
  %m_index = getelementptr inbounds %"class.scoped_vector<smt::theory_seq::depeq>::iterator", ptr %this1, i32 0, i32 1
  %0 = load i32, ptr %m_index, align 8
  %inc = add i32 %0, 1
  store i32 %inc, ptr %m_index, align 8
  ret ptr %this1
}

; Function Attrs: mustprogress uwtable
define linkonce_odr hidden noundef nonnull align 8 dereferenceable(48) ptr @_ZN13scoped_vectorIN3smt10theory_seq5depeqEE8iteratordeEv(ptr noundef nonnull align 8 dereferenceable(12) %this) #5 comdat align 2 {
entry:
  %this.addr = alloca ptr, align 8
  store ptr %this, ptr %this.addr, align 8
  %this1 = load ptr, ptr %this.addr, align 8
  %m_vec = getelementptr inbounds %"class.scoped_vector<smt::theory_seq::depeq>::iterator", ptr %this1, i32 0, i32 0
  %0 = load ptr, ptr %m_vec, align 8
  %m_index = getelementptr inbounds %"class.scoped_vector<smt::theory_seq::depeq>::iterator", ptr %this1, i32 0, i32 1
  %1 = load i32, ptr %m_index, align 8
  %call = call noundef nonnull align 8 dereferenceable(48) ptr @_ZNK13scoped_vectorIN3smt10theory_seq5depeqEEixEj(ptr noundef nonnull align 8 dereferenceable(64) %0, i32 noundef %1)
  ret ptr %call
}

; Function Attrs: mustprogress nounwind uwtable
define linkonce_odr hidden noundef zeroext i1 @_ZNK13scoped_vectorIN3smt10theory_seq5depeqEE8iteratorneERKS4_(ptr noundef nonnull align 8 dereferenceable(12) %this, ptr noundef nonnull align 8 dereferenceable(12) %other) #4 comdat align 2 {
entry:
  %this.addr = alloca ptr, align 8
  %other.addr = alloca ptr, align 8
  store ptr %this, ptr %this.addr, align 8
  store ptr %other, ptr %other.addr, align 8
  %this1 = load ptr, ptr %this.addr, align 8
  %0 = load ptr, ptr %other.addr, align 8
  %m_vec = getelementptr inbounds %"class.scoped_vector<smt::theory_seq::depeq>::iterator", ptr %0, i32 0, i32 0
  %1 = load ptr, ptr %m_vec, align 8
  %m_vec2 = getelementptr inbounds %"class.scoped_vector<smt::theory_seq::depeq>::iterator", ptr %this1, i32 0, i32 0
  %2 = load ptr, ptr %m_vec2, align 8
  %cmp = icmp ne ptr %1, %2
  br i1 %cmp, label %lor.end, label %lor.rhs

lor.rhs:                                          ; preds = %entry
  %3 = load ptr, ptr %other.addr, align 8
  %m_index = getelementptr inbounds %"class.scoped_vector<smt::theory_seq::depeq>::iterator", ptr %3, i32 0, i32 1
  %4 = load i32, ptr %m_index, align 8
  %m_index3 = getelementptr inbounds %"class.scoped_vector<smt::theory_seq::depeq>::iterator", ptr %this1, i32 0, i32 1
  %5 = load i32, ptr %m_index3, align 8
  %cmp4 = icmp ne i32 %4, %5
  br label %lor.end

lor.end:                                          ; preds = %lor.rhs, %entry
  %6 = phi i1 [ true, %entry ], [ %cmp4, %lor.rhs ]
  ret i1 %6
}

; Function Attrs: mustprogress uwtable
define linkonce_odr hidden { ptr, i32 } @_ZNK13scoped_vectorIN3smt10theory_seq5depeqEE3endEv(ptr noundef nonnull align 8 dereferenceable(64) %this) #5 comdat align 2 {
entry:
  %retval = alloca %"class.scoped_vector<smt::theory_seq::depeq>::iterator", align 8
  %this.addr = alloca ptr, align 8
  store ptr %this, ptr %this.addr, align 8
  %this1 = load ptr, ptr %this.addr, align 8
  %m_size = getelementptr inbounds %class.scoped_vector, ptr %this1, i32 0, i32 0
  %0 = load i32, ptr %m_size, align 8
  call void @_ZN13scoped_vectorIN3smt10theory_seq5depeqEE8iteratorC2ERKS3_j(ptr noundef nonnull align 8 dereferenceable(12) %retval, ptr noundef nonnull align 8 dereferenceable(64) %this1, i32 noundef %0)
  %1 = load { ptr, i32 }, ptr %retval, align 8
  ret { ptr, i32 } %1
}

; Function Attrs: mustprogress uwtable
define linkonce_odr hidden { ptr, i32 } @_ZNK13scoped_vectorIN3smt10theory_seq5depeqEE5beginEv(ptr noundef nonnull align 8 dereferenceable(64) %this) #5 comdat align 2 {
entry:
  %retval = alloca %"class.scoped_vector<smt::theory_seq::depeq>::iterator", align 8
  %this.addr = alloca ptr, align 8
  store ptr %this, ptr %this.addr, align 8
  %this1 = load ptr, ptr %this.addr, align 8
  call void @_ZN13scoped_vectorIN3smt10theory_seq5depeqEE8iteratorC2ERKS3_j(ptr noundef nonnull align 8 dereferenceable(12) %retval, ptr noundef nonnull align 8 dereferenceable(64) %this1, i32 noundef 0)
  %0 = load { ptr, i32 }, ptr %retval, align 8
  ret { ptr, i32 } %0
}

; Function Attrs: mustprogress uwtable
define hidden noundef nonnull align 8 dereferenceable(8) ptr @_ZNK3smt10theory_seq17display_equationsERSo(ptr noundef nonnull align 8 dereferenceable(4328) %this, ptr noundef nonnull align 8 dereferenceable(8) %out) #5 align 2 {
entry:
  %this.addr = alloca ptr, align 8
  %out.addr = alloca ptr, align 8
  %__range1 = alloca ptr, align 8
  %__begin1 = alloca %"class.scoped_vector<smt::theory_seq::depeq>::iterator", align 8
  %__end1 = alloca %"class.scoped_vector<smt::theory_seq::depeq>::iterator", align 8
  %e = alloca ptr, align 8
  store ptr %this, ptr %this.addr, align 8
  store ptr %out, ptr %out.addr, align 8
  %this1 = load ptr, ptr %this.addr, align 8
  %m_eqs = getelementptr inbounds %"class.smt::theory_seq", ptr %this1, i32 0, i32 4
  store ptr %m_eqs, ptr %__range1, align 8
  %0 = load ptr, ptr %__range1, align 8
  %call = call { ptr, i32 } @_ZNK13scoped_vectorIN3smt10theory_seq5depeqEE5beginEv(ptr noundef nonnull align 8 dereferenceable(64) %0)
  %1 = getelementptr inbounds { ptr, i32 }, ptr %__begin1, i32 0, i32 0
  %2 = extractvalue { ptr, i32 } %call, 0
  store ptr %2, ptr %1, align 8
  %3 = getelementptr inbounds { ptr, i32 }, ptr %__begin1, i32 0, i32 1
  %4 = extractvalue { ptr, i32 } %call, 1
  store i32 %4, ptr %3, align 8
  %5 = load ptr, ptr %__range1, align 8
  %call2 = call { ptr, i32 } @_ZNK13scoped_vectorIN3smt10theory_seq5depeqEE3endEv(ptr noundef nonnull align 8 dereferenceable(64) %5)
  %6 = getelementptr inbounds { ptr, i32 }, ptr %__end1, i32 0, i32 0
  %7 = extractvalue { ptr, i32 } %call2, 0
  store ptr %7, ptr %6, align 8
  %8 = getelementptr inbounds { ptr, i32 }, ptr %__end1, i32 0, i32 1
  %9 = extractvalue { ptr, i32 } %call2, 1
  store i32 %9, ptr %8, align 8
  br label %for.cond

for.cond:                                         ; preds = %for.inc, %entry
  %call3 = call noundef zeroext i1 @_ZNK13scoped_vectorIN3smt10theory_seq5depeqEE8iteratorneERKS4_(ptr noundef nonnull align 8 dereferenceable(12) %__begin1, ptr noundef nonnull align 8 dereferenceable(12) %__end1)
  br i1 %call3, label %for.body, label %for.end

for.body:                                         ; preds = %for.cond
  %call4 = call noundef nonnull align 8 dereferenceable(48) ptr @_ZN13scoped_vectorIN3smt10theory_seq5depeqEE8iteratordeEv(ptr noundef nonnull align 8 dereferenceable(12) %__begin1)
  store ptr %call4, ptr %e, align 8
  %10 = load ptr, ptr %out.addr, align 8
  %11 = load ptr, ptr %e, align 8
  %call5 = call noundef nonnull align 8 dereferenceable(8) ptr @_ZNK3smt10theory_seq16display_equationERSoRKNS0_5depeqE(ptr noundef nonnull align 8 dereferenceable(4328) %this1, ptr noundef nonnull align 8 dereferenceable(8) %10, ptr noundef nonnull align 8 dereferenceable(48) %11)
  br label %for.inc

for.inc:                                          ; preds = %for.body
  %call6 = call noundef nonnull align 8 dereferenceable(12) ptr @_ZN13scoped_vectorIN3smt10theory_seq5depeqEE8iteratorppEv(ptr noundef nonnull align 8 dereferenceable(12) %__begin1)
  br label %for.cond

for.end:                                          ; preds = %for.cond
  %12 = load ptr, ptr %out.addr, align 8
  ret ptr %12
}