; Function Attrs: mustprogress uwtable
define hidden noundef nonnull align 8 dereferenceable(8) ptr @_ZNK3smt10theory_seq17display_equationsERSo(ptr noundef nonnull align 8 dereferenceable(4328) %this, ptr noundef nonnull returned align 8 dereferenceable(8) %out) local_unnamed_addr #3 align 2 {
entry:
  %m_eqs = getelementptr inbounds i8, ptr %this, i64 240
  %0 = load i32, ptr %m_eqs, align 8
  %cmp4.i.not10 = icmp eq i32 %0, 0
  br i1 %cmp4.i.not10, label %for.end, label %for.body.lr.ph

for.body.lr.ph:                                   ; preds = %entry
  %m_elems.i.i = getelementptr inbounds i8, ptr %this, i64 256
  %m_index.i.i = getelementptr inbounds i8, ptr %this, i64 272
  %1 = zext i32 %0 to i64
  br label %for.body

for.body:                                         ; preds = %for.body.lr.ph, %for.body
  %indvars.iv = phi i64 [ 0, %for.body.lr.ph ], [ %indvars.iv.next, %for.body ]
  %2 = load ptr, ptr %m_index.i.i, align 8
  %arrayidx.i.i.i = getelementptr inbounds i32, ptr %2, i64 %indvars.iv
  %3 = load i32, ptr %arrayidx.i.i.i, align 4
  %4 = load ptr, ptr %m_elems.i.i, align 8
  %idxprom.i1.i.i = zext i32 %3 to i64
  %arrayidx.i2.i.i = getelementptr inbounds %"class.smt::theory_seq::depeq", ptr %4, i64 %idxprom.i1.i.i
  %call5 = tail call noundef nonnull align 8 dereferenceable(8) ptr @_ZNK3smt10theory_seq16display_equationERSoRKNS0_5depeqE(ptr noundef nonnull align 8 dereferenceable(4328) %this, ptr noundef nonnull align 8 dereferenceable(8) %out, ptr noundef nonnull align 8 dereferenceable(48) %arrayidx.i2.i.i)
  %indvars.iv.next = add nuw nsw i64 %indvars.iv, 1
  %cmp4.i.not = icmp eq i64 %indvars.iv.next, %1
  br i1 %cmp4.i.not, label %for.end, label %for.body

for.end:                                          ; preds = %for.body, %entry
  ret ptr %out
}